target datalayout = "e-m:e-p270:32:32-p271:32:32-p272:64:64-i64:64-i128:128-f80:128-n8:16:32:64-S128"
target triple = "x86_64-pc-linux-gnu"

; Function Attrs: mustprogress nounwind uwtable
define linkonce_odr noundef i32 @_ZN6icu_779Collation21makeLongSecondaryCE32Ej(i32 noundef %0) #1 comdat align 2 {
  %2 = alloca i32, align 4
  store i32 %0, ptr %2, align 4, !tbaa !57
  %3 = load i32, ptr %2, align 4, !tbaa !57
  %4 = or i32 %3, 192
  %5 = or i32 %4, 2
  ret i32 %5
}

; Function Attrs: mustprogress nounwind uwtable
define linkonce_odr noundef i32 @_ZN6icu_779Collation19makeLongPrimaryCE32Ej(i32 noundef %0) #1 comdat align 2 {
  %2 = alloca i32, align 4
  store i32 %0, ptr %2, align 4, !tbaa !57
  %3 = load i32, ptr %2, align 4, !tbaa !57
  %4 = or i32 %3, 193
  ret i32 %4
}

; Function Attrs: mustprogress uwtable
define noundef i32 @_ZN6icu_7720CollationDataBuilder17encodeOneCEAsCE32El(i64 noundef %0) #4 align 2 {
  %2 = alloca i32, align 4
  %3 = alloca i64, align 8
  %4 = alloca i32, align 4
  %5 = alloca i32, align 4
  %6 = alloca i32, align 4
  %7 = alloca i32, align 4
  store i64 %0, ptr %3, align 8, !tbaa !100
  call void @llvm.lifetime.start.p0(i64 4, ptr %4) #11
  %8 = load i64, ptr %3, align 8, !tbaa !100
  %9 = ashr i64 %8, 32
  %10 = trunc i64 %9 to i32
  store i32 %10, ptr %4, align 4, !tbaa !57
  call void @llvm.lifetime.start.p0(i64 4, ptr %5) #11
  %11 = load i64, ptr %3, align 8, !tbaa !100
  %12 = trunc i64 %11 to i32
  store i32 %12, ptr %5, align 4, !tbaa !57
  call void @llvm.lifetime.start.p0(i64 4, ptr %6) #11
  %13 = load i64, ptr %3, align 8, !tbaa !100
  %14 = and i64 %13, 65535
  %15 = trunc i64 %14 to i32
  store i32 %15, ptr %6, align 4, !tbaa !57
  %16 = load i64, ptr %3, align 8, !tbaa !100
  %17 = and i64 %16, 281470698455295
  %18 = icmp eq i64 %17, 0
  br i1 %18, label %19, label %27

19:                                               ; preds = %1
  %20 = load i32, ptr %4, align 4, !tbaa !57
  %21 = load i32, ptr %5, align 4, !tbaa !57
  %22 = lshr i32 %21, 16
  %23 = or i32 %20, %22
  %24 = load i32, ptr %6, align 4, !tbaa !57
  %25 = lshr i32 %24, 8
  %26 = or i32 %23, %25
  store i32 %26, ptr %2, align 4
  store i32 1, ptr %7, align 4
  br label %47

27:                                               ; preds = %1
  %28 = load i64, ptr %3, align 8, !tbaa !100
  %29 = and i64 %28, 1099511627775
  %30 = icmp eq i64 %29, 83887360
  br i1 %30, label %31, label %34

31:                                               ; preds = %27
  %32 = load i32, ptr %4, align 4, !tbaa !57
  %33 = call noundef i32 @_ZN6icu_779Collation19makeLongPrimaryCE32Ej(i32 noundef %32)
  store i32 %33, ptr %2, align 4
  store i32 1, ptr %7, align 4
  br label %47

34:                                               ; preds = %27
  %35 = load i32, ptr %4, align 4, !tbaa !57
  %36 = icmp eq i32 %35, 0
  br i1 %36, label %37, label %44

37:                                               ; preds = %34
  %38 = load i32, ptr %6, align 4, !tbaa !57
  %39 = and i32 %38, 255
  %40 = icmp eq i32 %39, 0
  br i1 %40, label %41, label %44

41:                                               ; preds = %37
  %42 = load i32, ptr %5, align 4, !tbaa !57
  %43 = call noundef i32 @_ZN6icu_779Collation21makeLongSecondaryCE32Ej(i32 noundef %42)
  store i32 %43, ptr %2, align 4
  store i32 1, ptr %7, align 4
  br label %47

44:                                               ; preds = %37, %34
  br label %45

45:                                               ; preds = %44
  br label %46

46:                                               ; preds = %45
  store i32 1, ptr %2, align 4
  store i32 1, ptr %7, align 4
  br label %47

47:                                               ; preds = %46, %41, %31, %19
  call void @llvm.lifetime.end.p0(i64 4, ptr %6) #11
  call void @llvm.lifetime.end.p0(i64 4, ptr %5) #11
  call void @llvm.lifetime.end.p0(i64 4, ptr %4) #11
  %48 = load i32, ptr %2, align 4
  ret i32 %48
}