; Function Attrs: mustprogress nofree norecurse nosync nounwind willreturn memory(none) uwtable
define noundef i32 @_ZN6icu_7720CollationDataBuilder17encodeOneCEAsCE32El(i64 noundef %0) local_unnamed_addr #14 align 2 {
  %2 = lshr i64 %0, 32
  %3 = trunc nuw i64 %2 to i32
  %4 = trunc i64 %0 to i32
  %5 = and i64 %0, 281470698455295
  %6 = icmp eq i64 %5, 0
  br i1 %6, label %7, label %13

7:                                                ; preds = %1
  %8 = lshr i32 %4, 16
  %9 = lshr exact i32 %4, 8
  %10 = and i32 %9, 255
  %11 = or disjoint i32 %8, %10
  %12 = or disjoint i32 %11, %3
  br label %23

13:                                               ; preds = %1
  %14 = and i64 %0, 1099511627775
  %15 = icmp eq i64 %14, 83887360
  br i1 %15, label %16, label %18

16:                                               ; preds = %13
  %17 = or disjoint i32 %3, 193
  br label %23

18:                                               ; preds = %13
  %19 = icmp ult i64 %0, 4294967296
  %20 = and i32 %4, 255
  %21 = icmp eq i32 %20, 0
  %or.cond = and i1 %19, %21
  %22 = or i32 %4, 194
  %spec.select = select i1 %or.cond, i32 %22, i32 1
  br label %23

23:                                               ; preds = %18, %16, %7
  %.0 = phi i32 [ %12, %7 ], [ %17, %16 ], [ %spec.select, %18 ]
  ret i32 %.0
}